target datalayout = "e-m:e-p270:32:32-p271:32:32-p272:64:64-i64:64-i128:128-f80:128-n8:16:32:64-S128"
target triple = "x86_64-pc-linux-gnu"

%class.LibRaw = type { ptr, %struct.libraw_data_t, ptr, %struct.libraw_internal_data_t, [2048 x %struct.decode], ptr, ptr, [10 x %struct.tiff_ifd_t], %class.libraw_memmgr, %struct.libraw_callbacks_t, { i64, i64 }, { i64, i64 }, { i64, i64 }, ptr, ptr, ptr, i64, ptr, ptr, ptr, ptr }
%struct.libraw_data_t = type { ptr, %struct.libraw_image_sizes_t, %struct.libraw_iparams_t, %struct.libraw_lensinfo_t, %struct.libraw_makernotes_t, %struct.libraw_shootinginfo_t, %struct.libraw_output_params_t, %struct.libraw_raw_unpack_params_t, i32, i32, %struct.libraw_colordata_t, %struct.libraw_imgother_t, %struct.libraw_thumbnail_t, %struct.libraw_thumbnail_list_t, %struct.libraw_rawdata_t, ptr }
%struct.libraw_image_sizes_t = type { i16, i16, i16, i16, i16, i16, i16, i16, i32, double, i32, [8 x [4 x i32]], i16, [2 x %struct.libraw_raw_inset_crop_t] }
%struct.libraw_raw_inset_crop_t = type { i16, i16, i16, i16 }
%struct.libraw_iparams_t = type { [4 x i8], [64 x i8], [64 x i8], [64 x i8], [64 x i8], [64 x i8], i32, i32, i32, i32, i32, i32, [6 x [6 x i8]], [6 x [6 x i8]], [5 x i8], i32, ptr }
%struct.libraw_lensinfo_t = type { float, float, float, float, float, [128 x i8], [128 x i8], [128 x i8], [128 x i8], i16, %struct.libraw_nikonlens_t, %struct.libraw_dnglens_t, %struct.libraw_makernotes_lens_t }
%struct.libraw_nikonlens_t = type { float, i8, i8, i8, i8 }
%struct.libraw_dnglens_t = type { float, float, float, float }
%struct.libraw_makernotes_lens_t = type { i64, [128 x i8], i16, i16, i64, i16, i16, [64 x i8], i16, [16 x i8], [16 x i8], float, float, float, float, float, float, float, float, float, float, float, float, float, float, float, i64, [128 x i8], i64, [128 x i8], i64, [128 x i8], i16, float }
%struct.libraw_makernotes_t = type { %struct.libraw_canon_makernotes_t, %struct.libraw_nikon_makernotes_t, %struct.libraw_hasselblad_makernotes_t, %struct.libraw_fuji_info_t, %struct.libraw_olympus_makernotes_t, %struct.libraw_sony_info_t, %struct.libraw_kodak_makernotes_t, %struct.libraw_panasonic_makernotes_t, %struct.libraw_pentax_makernotes_t, %struct.libraw_p1_makernotes_t, %struct.libraw_ricoh_makernotes_t, %struct.libraw_samsung_makernotes_t, %struct.libraw_metadata_common_t }
%struct.libraw_canon_makernotes_t = type { i32, i32, i32, i32, [4 x i32], i32, [4 x i32], i16, i16, i8, i16, i16, i16, i16, i16, i16, i16, i16, i16, i16, i16, i16, i16, i32, float, i16, i16, i16, i32, i16, i32, i32, i16, i32, %struct.libraw_area_t, %struct.libraw_area_t, %struct.libraw_area_t, %struct.libraw_area_t, %struct.libraw_area_t, [2 x i16] }
%struct.libraw_area_t = type { i16, i16, i16, i16 }
%struct.libraw_nikon_makernotes_t = type { double, i16, i16, [7 x i8], i8, i8, [13 x i8], [20 x i8], [4 x i8], [4 x i8], [4 x i8], i8, i8, i8, i8, i8, [2 x i8], i8, i8, i8, i8, i8, [4 x i8], [4 x i8], i8, i16, i32, i32, i32, i32, [4 x double], i8, i8, i8, i32, i32, i32, i8, [4 x i16], i16, %struct.libraw_sensor_highspeed_crop_t, i16, i16, i16, i32, [20 x i8], [20 x i8], i32, i16, double, double, double }
%struct.libraw_sensor_highspeed_crop_t = type { i16, i16, i16, i16 }
%struct.libraw_hasselblad_makernotes_t = type { i32, double, [8 x i8], [64 x i8], [64 x i8], i32, i32, i32, i32, [32 x i8], [64 x i8], i32, [2 x i32], [2 x i32], [4 x [3 x double]] }
%struct.libraw_fuji_info_t = type { float, i16, i16, i16, i16, i16, i16, i16, i16, [33 x i8], [33 x i8], float, i16, i16, [2 x i16], i16, i32, i32, i16, [3 x i16], i16, i16, i16, i16, i16, i32, i16, [13 x i8], [5 x i8], [5 x i8], i32, i16, i32, i16, [9 x i16], [32 x i32], i32, i32, i32, [2 x float], i32 }
%struct.libraw_olympus_makernotes_t = type { [6 x i8], i16, [2 x i32], [5 x i16], i16, [2 x i16], i16, i16, [64 x i32], [5 x double], i16, i8, [3 x i16], [3 x i32], i16, i16, i16, i16, double, [4 x i16], [2 x i32], i8, i32, i16, i16 }
%struct.libraw_sony_info_t = type { i16, i8, i8, i32, i8, i32, i8, i8, i16, [2 x i16], i8, i8, i16, [10 x i8], i8, i8, [4 x i16], i16, i8, i8, i8, i16, i32, i16, [2 x i16], i16, i16, i16, i16, i16, i16, i16, i32, float, i16, i32, i32, i16, [20 x i8], i32, i16, i32, i8, i8, i16, i16, i16, i16, i16, i16, i16, i16, i16, i32, i16, [16 x i8], float }
%struct.libraw_kodak_makernotes_t = type { i16, i16, i16, i16, i16, i16, [3 x [3 x float]], [3 x [3 x float]], [3 x [3 x float]], [3 x [3 x float]], [3 x [3 x float]], [3 x [3 x float]], i16, i16, i16, i16, float, float }
%struct.libraw_panasonic_makernotes_t = type { i16, i16, [8 x float], i32, float, [3 x i32], i16, i16, i32, i32 }
%struct.libraw_pentax_makernotes_t = type { [4 x i8], [2 x i16], [2 x i16], i16, i32, i32, i16, i16, i8, i8, i16 }
%struct.libraw_p1_makernotes_t = type { [64 x i8], [64 x i8], [256 x i8], [64 x i8] }
%struct.libraw_ricoh_makernotes_t = type { i16, [2 x i32], [2 x i32], i16, i32, i32, i32, i32, i16, i16, i16, i16, i16, i16, double, double }
%struct.libraw_samsung_makernotes_t = type { [4 x i32], [4 x i32], [2 x i32], [11 x i32], double, i32, [32 x i8] }
%struct.libraw_metadata_common_t = type { float, float, float, float, float, float, float, float, float, float, float, float, float, float, float, float, i16, [128 x i8], float, [4 x %struct.libraw_afinfo_item_t], i32 }
%struct.libraw_afinfo_item_t = type { i32, i16, i32, i32, ptr }
%struct.libraw_shootinginfo_t = type { i16, i16, i16, i16, i16, i16, i16, [64 x i8], [64 x i8] }
%struct.libraw_output_params_t = type { [4 x i32], [4 x i32], [4 x double], [6 x double], [4 x float], float, float, i32, i32, i32, i32, i32, i32, i32, ptr, ptr, ptr, ptr, i32, i32, i32, i32, i32, i32, [4 x i32], i32, i32, float, float, i32, i32, i32, i32, i32, i32, i32, i32, float, float, i32, i32 }
%struct.libraw_raw_unpack_params_t = type { i32, i32, i32, i32, i32, i32, i32, float, [5 x i8], ptr }
%struct.libraw_colordata_t = type { [65536 x i16], [4104 x i32], i32, i32, i32, [4 x i64], float, float, [8 x [8 x i16]], [4 x float], [4 x float], [3 x [4 x float]], [3 x [4 x float]], [3 x [4 x float]], [4 x [3 x float]], %struct.ph1_t, float, float, [64 x i8], [64 x i8], [64 x i8], [64 x i8], [17 x i8], [64 x i8], ptr, i32, [8 x i32], [2 x %struct.libraw_dng_color_t], %struct.libraw_dng_levels_t, [256 x [4 x i32]], [64 x [5 x float]], i32, [2 x %struct.libraw_P1_color_t], i32, i32 }
%struct.ph1_t = type { i32, i32, i32, i32, i32, i32, i32, i32, float }
%struct.libraw_dng_color_t = type { i32, i16, [4 x [4 x float]], [4 x [3 x float]], [3 x [4 x float]] }
%struct.libraw_dng_levels_t = type { i32, [4104 x i32], i32, [4104 x float], float, [4 x i32], [4 x i16], [4 x float], i32, [4 x float], [4 x float], float, float }
%struct.libraw_P1_color_t = type { [9 x float] }
%struct.libraw_imgother_t = type { float, float, float, float, i64, i32, [32 x i32], %struct.libraw_gps_info_t, [512 x i8], [64 x i8], [4 x float] }
%struct.libraw_gps_info_t = type { [3 x float], [3 x float], [3 x float], float, i8, i8, i8, i8, i8 }
%struct.libraw_thumbnail_t = type { i32, i16, i16, i32, i32, ptr }
%struct.libraw_thumbnail_list_t = type { i32, [8 x %struct.libraw_thumbnail_item_t] }
%struct.libraw_thumbnail_item_t = type { i32, i16, i16, i16, i32, i32, i64 }
%struct.libraw_rawdata_t = type { ptr, ptr, ptr, ptr, ptr, ptr, ptr, ptr, ptr, %struct.libraw_iparams_t, %struct.libraw_image_sizes_t, %struct.libraw_internal_output_params_t, %struct.libraw_colordata_t }
%struct.libraw_internal_output_params_t = type { i32, i32, i32, i16, i16 }
%struct.libraw_internal_data_t = type { %struct.internal_data_t, %struct.libraw_internal_output_params_t, %struct.output_data_t, %struct.identify_data_t, %struct.unpacker_data_t }
%struct.internal_data_t = type { ptr, ptr, i32, ptr, i64, i64, [4 x i32] }
%struct.output_data_t = type { ptr, ptr }
%struct.identify_data_t = type { i32, i64, i64, i32, i32, i32 }
%struct.unpacker_data_t = type { i16, [4 x i16], [3 x i16], i32, i64, i64, i64, i64, i64, i64, i32, i32, i32, i32, i32, i32, i32, i32, i32, i32, i32, i32, i32, i32, i32, i32, i32, i64, i32, i32, i32, i32, i32, i32, i32, i32, i32, %struct.pana8_tags_t, [16 x %struct.crx_data_header_t], i32, i32, i16, i16, i32, i32, i32, i32, i32, i32, i32, [20 x i32], i16 }
%struct.pana8_tags_t = type { [6 x i32], [6 x i16], i16, [4 x i16], [17 x i16], [17 x i16], [17 x i16], i16, i16, [5 x i64], [5 x i16], [5 x i32], [5 x i16], [5 x i16] }
%struct.crx_data_header_t = type { i32, i32, i32, i32, i32, i32, i32, i32, i32, i32, i32, i32, i32, i32, i32, i64, i32, ptr, i32, i32, i32, ptr, i32, ptr }
%struct.decode = type { [2 x ptr], i32 }
%struct.tiff_ifd_t = type { i32, i32, i32, i32, i32, i32, i32, i32, i32, i32, i32, i32, i32, i32, i32, ptr, i32, ptr, i32, i32, i32, i32, i32, i32, i32, float, i64, i64, i32, [2 x %struct.libraw_dng_color_t], %struct.libraw_dng_levels_t, i32 }
%class.libraw_memmgr = type <{ ptr, i32, [4 x i8] }>
%struct.libraw_callbacks_t = type { ptr, ptr, ptr, ptr, ptr, ptr, ptr, ptr, ptr, ptr, ptr, ptr, ptr, ptr, ptr, ptr, ptr }

; Function Attrs: mustprogress uwtable
define noundef i32 @_ZN6LibRaw23guess_RAFDataGenerationEPh(ptr noundef nonnull align 8 dereferenceable(767680) %0, ptr noundef %1) #0 align 2 {
  %3 = alloca ptr, align 8
  %4 = alloca ptr, align 8
  %5 = alloca i32, align 4
  %6 = alloca i16, align 2
  %7 = alloca i16, align 2
  %8 = alloca i32, align 4
  store ptr %0, ptr %3, align 8, !tbaa !6
  store ptr %1, ptr %4, align 8, !tbaa !11
  %9 = load ptr, ptr %3, align 8
  call void @llvm.lifetime.start.p0(i64 4, ptr %5) #14
  store i32 0, ptr %5, align 4, !tbaa !13
  call void @llvm.lifetime.start.p0(i64 2, ptr %6) #14
  %10 = load ptr, ptr %4, align 8, !tbaa !11
  %11 = call noundef zeroext i16 @_ZN6LibRaw5sget2EPh(ptr noundef nonnull align 8 dereferenceable(767680) %9, ptr noundef %10)
  store i16 %11, ptr %6, align 2, !tbaa !15
  call void @llvm.lifetime.start.p0(i64 2, ptr %7) #14
  %12 = load ptr, ptr %4, align 8, !tbaa !11
  %13 = getelementptr inbounds i8, ptr %12, i64 2
  %14 = call noundef zeroext i16 @_ZN6LibRaw5sget2EPh(ptr noundef nonnull align 8 dereferenceable(767680) %9, ptr noundef %13)
  store i16 %14, ptr %7, align 2, !tbaa !15
  call void @llvm.lifetime.start.p0(i64 4, ptr %8) #14
  %15 = load ptr, ptr %4, align 8, !tbaa !11
  %16 = getelementptr inbounds i8, ptr %15, i64 4
  %17 = call noundef i32 @_ZN6LibRaw5sget4EPh(ptr noundef nonnull align 8 dereferenceable(767680) %9, ptr noundef %16)
  %18 = icmp eq i32 %17, 1398035031
  %19 = zext i1 %18 to i32
  store i32 %19, ptr %8, align 4, !tbaa !13
  %20 = load i16, ptr %6, align 2, !tbaa !15
  %21 = icmp ne i16 %20, 0
  br i1 %21, label %22, label %34

22:                                               ; preds = %2
  %23 = load i16, ptr %7, align 2, !tbaa !15
  %24 = icmp ne i16 %23, 0
  br i1 %24, label %34, label %25

25:                                               ; preds = %22
  %26 = load i16, ptr %6, align 2, !tbaa !15
  %27 = zext i16 %26 to i32
  %28 = icmp slt i32 %27, 10000
  br i1 %28, label %29, label %34

29:                                               ; preds = %25
  %30 = getelementptr inbounds nuw %class.LibRaw, ptr %9, i32 0, i32 1
  %31 = getelementptr inbounds nuw %struct.libraw_data_t, ptr %30, i32 0, i32 4
  %32 = getelementptr inbounds nuw %struct.libraw_makernotes_t, ptr %31, i32 0, i32 3
  %33 = getelementptr inbounds nuw %struct.libraw_fuji_info_t, ptr %32, i32 0, i32 30
  store i32 1, ptr %33, align 4, !tbaa !17
  store i32 0, ptr %5, align 4, !tbaa !13
  br label %75

34:                                               ; preds = %25, %22, %2
  %35 = load i16, ptr %6, align 2, !tbaa !15
  %36 = zext i16 %35 to i32
  %37 = icmp sgt i32 %36, 10000
  br i1 %37, label %38, label %51

38:                                               ; preds = %34
  %39 = load i16, ptr %7, align 2, !tbaa !15
  %40 = icmp ne i16 %39, 0
  br i1 %40, label %51, label %41

41:                                               ; preds = %38
  %42 = getelementptr inbounds nuw %class.LibRaw, ptr %9, i32 0, i32 1
  %43 = getelementptr inbounds nuw %struct.libraw_data_t, ptr %42, i32 0, i32 4
  %44 = getelementptr inbounds nuw %struct.libraw_makernotes_t, ptr %43, i32 0, i32 3
  %45 = getelementptr inbounds nuw %struct.libraw_fuji_info_t, ptr %44, i32 0, i32 30
  store i32 2, ptr %45, align 4, !tbaa !17
  %46 = load i16, ptr %6, align 2, !tbaa !15
  %47 = getelementptr inbounds nuw %class.LibRaw, ptr %9, i32 0, i32 1
  %48 = getelementptr inbounds nuw %struct.libraw_data_t, ptr %47, i32 0, i32 4
  %49 = getelementptr inbounds nuw %struct.libraw_makernotes_t, ptr %48, i32 0, i32 3
  %50 = getelementptr inbounds nuw %struct.libraw_fuji_info_t, ptr %49, i32 0, i32 31
  store i16 %46, ptr %50, align 8, !tbaa !76
  store i32 4, ptr %5, align 4, !tbaa !13
  br label %74

51:                                               ; preds = %38, %34
  %52 = load i16, ptr %6, align 2, !tbaa !15
  %53 = icmp ne i16 %52, 0
  br i1 %53, label %73, label %54

54:                                               ; preds = %51
  %55 = load i32, ptr %8, align 4, !tbaa !13
  %56 = icmp ne i32 %55, 0
  br i1 %56, label %62, label %57

57:                                               ; preds = %54
  %58 = getelementptr inbounds nuw %class.LibRaw, ptr %9, i32 0, i32 1
  %59 = getelementptr inbounds nuw %struct.libraw_data_t, ptr %58, i32 0, i32 4
  %60 = getelementptr inbounds nuw %struct.libraw_makernotes_t, ptr %59, i32 0, i32 3
  %61 = getelementptr inbounds nuw %struct.libraw_fuji_info_t, ptr %60, i32 0, i32 30
  store i32 3, ptr %61, align 4, !tbaa !17
  store i32 4, ptr %5, align 4, !tbaa !13
  br label %67

62:                                               ; preds = %54
  %63 = getelementptr inbounds nuw %class.LibRaw, ptr %9, i32 0, i32 1
  %64 = getelementptr inbounds nuw %struct.libraw_data_t, ptr %63, i32 0, i32 4
  %65 = getelementptr inbounds nuw %struct.libraw_makernotes_t, ptr %64, i32 0, i32 3
  %66 = getelementptr inbounds nuw %struct.libraw_fuji_info_t, ptr %65, i32 0, i32 30
  store i32 4, ptr %66, align 4, !tbaa !17
  store i32 8, ptr %5, align 4, !tbaa !13
  br label %67

67:                                               ; preds = %62, %57
  %68 = load i16, ptr %7, align 2, !tbaa !15
  %69 = getelementptr inbounds nuw %class.LibRaw, ptr %9, i32 0, i32 1
  %70 = getelementptr inbounds nuw %struct.libraw_data_t, ptr %69, i32 0, i32 4
  %71 = getelementptr inbounds nuw %struct.libraw_makernotes_t, ptr %70, i32 0, i32 3
  %72 = getelementptr inbounds nuw %struct.libraw_fuji_info_t, ptr %71, i32 0, i32 31
  store i16 %68, ptr %72, align 8, !tbaa !76
  br label %73

73:                                               ; preds = %67, %51
  br label %74

74:                                               ; preds = %73, %41
  br label %75

75:                                               ; preds = %74, %29
  %76 = load i32, ptr %5, align 4, !tbaa !13
  call void @llvm.lifetime.end.p0(i64 4, ptr %8) #14
  call void @llvm.lifetime.end.p0(i64 2, ptr %7) #14
  call void @llvm.lifetime.end.p0(i64 2, ptr %6) #14
  call void @llvm.lifetime.end.p0(i64 4, ptr %5) #14
  ret i32 %76
}