; Function Attrs: mustprogress uwtable
define noundef range(i32 0, 9) i32 @_ZN6LibRaw23guess_RAFDataGenerationEPh(ptr noundef nonnull align 8 dereferenceable(767680) %0, ptr noundef %1) local_unnamed_addr #0 align 2 {
  %3 = tail call noundef zeroext i16 @_ZN6LibRaw5sget2EPh(ptr noundef nonnull align 8 dereferenceable(767680) %0, ptr noundef %1)
  %4 = getelementptr inbounds nuw i8, ptr %1, i64 2
  %5 = tail call noundef zeroext i16 @_ZN6LibRaw5sget2EPh(ptr noundef nonnull align 8 dereferenceable(767680) %0, ptr noundef nonnull %4)
  %6 = getelementptr inbounds nuw i8, ptr %1, i64 4
  %7 = tail call noundef i32 @_ZN6LibRaw5sget4EPh(ptr noundef nonnull align 8 dereferenceable(767680) %0, ptr noundef nonnull %6)
  %8 = icmp eq i32 %7, 1398035031
  %9 = icmp ne i16 %5, 0
  %10 = add i16 %3, -10000
  %11 = icmp ult i16 %10, -9999
  %or.cond4.not = or i1 %11, %9
  br i1 %or.cond4.not, label %14, label %12

12:                                               ; preds = %2
  %13 = getelementptr inbounds nuw i8, ptr %0, i64 2916
  store i32 1, ptr %13, align 4, !tbaa !6
  br label %23

14:                                               ; preds = %2
  %15 = icmp ult i16 %3, 10001
  %or.cond6 = or i1 %15, %9
  br i1 %or.cond6, label %19, label %16

16:                                               ; preds = %14
  %17 = getelementptr inbounds nuw i8, ptr %0, i64 2916
  store i32 2, ptr %17, align 4, !tbaa !6
  %18 = getelementptr inbounds nuw i8, ptr %0, i64 2920
  store i16 %3, ptr %18, align 8, !tbaa !71
  br label %23

19:                                               ; preds = %14
  %.not = icmp eq i16 %3, 0
  br i1 %.not, label %20, label %23

20:                                               ; preds = %19
  %spec.select = select i1 %8, i32 4, i32 3
  %spec.select19 = select i1 %8, i32 8, i32 4
  %21 = getelementptr inbounds nuw i8, ptr %0, i64 2916
  store i32 %spec.select, ptr %21, align 4, !tbaa !6
  %22 = getelementptr inbounds nuw i8, ptr %0, i64 2920
  store i16 %5, ptr %22, align 8, !tbaa !71
  br label %23

23:                                               ; preds = %16, %20, %19, %12
  %.0 = phi i32 [ 0, %12 ], [ 0, %19 ], [ %spec.select19, %20 ], [ 4, %16 ]
  ret i32 %.0
}